target datalayout = "e-m:e-p270:32:32-p271:32:32-p272:64:64-i64:64-i128:128-f80:128-n8:16:32:64-S128"
target triple = "x86_64-unknown-linux-gnu"

%"struct.Assimp::ScenePrivateData" = type <{ ptr, i32, i8, [3 x i8] }>
%struct.aiScene = type { i32, ptr, i32, ptr, i32, ptr, i32, ptr, i32, ptr, i32, ptr, i32, ptr, ptr, %struct.aiString, i32, ptr, ptr }
%struct.aiString = type { i32, [1024 x i8] }

; Function Attrs: mustprogress nounwind uwtable
define linkonce_odr hidden noundef ptr @_ZN6Assimp9ScenePrivEP7aiScene(ptr noundef %in) #0 comdat {
entry:
  %retval = alloca ptr, align 8
  %in.addr = alloca ptr, align 8
  store ptr %in, ptr %in.addr, align 8
  %0 = load ptr, ptr %in.addr, align 8
  %cmp = icmp eq ptr null, %0
  br i1 %cmp, label %if.then, label %if.end

if.then:                                          ; preds = %entry
  store ptr null, ptr %retval, align 8
  br label %return

if.end:                                           ; preds = %entry
  %1 = load ptr, ptr %in.addr, align 8
  %mPrivate = getelementptr inbounds %struct.aiScene, ptr %1, i32 0, i32 18
  %2 = load ptr, ptr %mPrivate, align 8
  store ptr %2, ptr %retval, align 8
  br label %return

return:                                           ; preds = %if.end, %if.then
  %3 = load ptr, ptr %retval, align 8
  ret ptr %3
}

; Function Attrs: mustprogress uwtable
define void @aiCopyScene(ptr noundef %pIn, ptr noundef %pOut) #2 {
entry:
  %pIn.addr = alloca ptr, align 8
  %pOut.addr = alloca ptr, align 8
  store ptr %pIn, ptr %pIn.addr, align 8
  store ptr %pOut, ptr %pOut.addr, align 8
  %0 = load ptr, ptr %pOut.addr, align 8
  %tobool = icmp ne ptr %0, null
  br i1 %tobool, label %lor.lhs.false, label %if.then

lor.lhs.false:                                    ; preds = %entry
  %1 = load ptr, ptr %pIn.addr, align 8
  %tobool1 = icmp ne ptr %1, null
  br i1 %tobool1, label %if.end, label %if.then

if.then:                                          ; preds = %lor.lhs.false, %entry
  br label %return

if.end:                                           ; preds = %lor.lhs.false
  %2 = load ptr, ptr %pOut.addr, align 8
  %3 = load ptr, ptr %pIn.addr, align 8
  call void @_ZN6Assimp13SceneCombiner9CopySceneEPP7aiScenePKS1_b(ptr noundef %2, ptr noundef %3, i1 noundef zeroext true)
  %4 = load ptr, ptr %pOut.addr, align 8
  %5 = load ptr, ptr %4, align 8
  %call = call noundef ptr @_ZN6Assimp9ScenePrivEP7aiScene(ptr noundef %5)
  %mIsCopy = getelementptr inbounds %"struct.Assimp::ScenePrivateData", ptr %call, i32 0, i32 2
  store i8 1, ptr %mIsCopy, align 4
  br label %return

return:                                           ; preds = %if.end, %if.then
  ret void
}