; Function Attrs: mustprogress uwtable
define void @aiCopyScene(ptr noundef %pIn, ptr noundef %pOut) local_unnamed_addr #0 {
entry:
  %tobool = icmp ne ptr %pOut, null
  %tobool1 = icmp ne ptr %pIn, null
  %or.cond = and i1 %tobool1, %tobool
  br i1 %or.cond, label %if.end, label %return

if.end:                                           ; preds = %entry
  tail call void @_ZN6Assimp13SceneCombiner9CopySceneEPP7aiScenePKS1_b(ptr noundef nonnull %pOut, ptr noundef nonnull %pIn, i1 noundef zeroext true)
  %0 = load ptr, ptr %pOut, align 8, !nonnull !4, !noundef !4
  %mPrivate.i = getelementptr inbounds i8, ptr %0, i64 1160
  %1 = load ptr, ptr %mPrivate.i, align 8
  %mIsCopy = getelementptr inbounds i8, ptr %1, i64 12
  store i8 1, ptr %mIsCopy, align 4
  br label %return

return:                                           ; preds = %entry, %if.end
  ret void
}